target datalayout = "e-m:e-p270:32:32-p271:32:32-p272:64:64-i64:64-i128:128-f80:128-n8:16:32:64-S128"
target triple = "x86_64-pc-linux-gnu"

%struct.view_t = type { ptr, ptr, %struct.lv_style_t, %struct.lv_style_t, %struct.anon }
%struct.lv_style_t = type { ptr, i32, i8 }
%struct.anon = type { ptr, %struct.anon.0, %struct.anon.4 }
%struct.anon.0 = type { ptr, %struct.anon.1, %struct.anon.2, %struct.anon.3 }
%struct.anon.1 = type { ptr, ptr, ptr }
%struct.anon.2 = type { ptr, ptr, ptr, ptr }
%struct.anon.3 = type { ptr, ptr, ptr, ptr, ptr, ptr, ptr, ptr, ptr, ptr, ptr, ptr, ptr, ptr, ptr, ptr, ptr }
%struct.anon.4 = type { ptr, ptr, ptr }
%union.lv_style_value_t = type { ptr }

@flex_flow_map = internal constant [8 x i32] [i32 0, i32 1, i32 4, i32 8, i32 12, i32 5, i32 9, i32 13], align 16
@flex_align_map = internal constant [6 x i32] [i32 0, i32 1, i32 2, i32 3, i32 4, i32 5], align 16

; Function Attrs: inlinehint nounwind uwtable
define internal i32 @lv_obj_get_style_flex_track_place(ptr noundef %0, i32 noundef %1) #3 {
  %3 = alloca ptr, align 8
  %4 = alloca i32, align 4
  %5 = alloca %union.lv_style_value_t, align 8
  store ptr %0, ptr %3, align 8, !tbaa !22
  store i32 %1, ptr %4, align 4, !tbaa !26
  call void @llvm.lifetime.start.p0(i64 8, ptr %5) #4
  %6 = load ptr, ptr %3, align 8, !tbaa !22
  %7 = load i32, ptr %4, align 4, !tbaa !26
  %8 = call ptr @lv_obj_get_style_prop(ptr noundef %6, i32 noundef %7, i8 noundef zeroext -128)
  %9 = getelementptr inbounds nuw %union.lv_style_value_t, ptr %5, i32 0, i32 0
  store ptr %8, ptr %9, align 8
  %10 = load i32, ptr %5, align 8, !tbaa !32
  call void @llvm.lifetime.end.p0(i64 8, ptr %5) #4
  ret i32 %10
}

; Function Attrs: inlinehint nounwind uwtable
define internal i32 @lv_obj_get_style_flex_cross_place(ptr noundef %0, i32 noundef %1) #3 {
  %3 = alloca ptr, align 8
  %4 = alloca i32, align 4
  %5 = alloca %union.lv_style_value_t, align 8
  store ptr %0, ptr %3, align 8, !tbaa !22
  store i32 %1, ptr %4, align 4, !tbaa !26
  call void @llvm.lifetime.start.p0(i64 8, ptr %5) #4
  %6 = load ptr, ptr %3, align 8, !tbaa !22
  %7 = load i32, ptr %4, align 4, !tbaa !26
  %8 = call ptr @lv_obj_get_style_prop(ptr noundef %6, i32 noundef %7, i8 noundef zeroext 127)
  %9 = getelementptr inbounds nuw %union.lv_style_value_t, ptr %5, i32 0, i32 0
  store ptr %8, ptr %9, align 8
  %10 = load i32, ptr %5, align 8, !tbaa !32
  call void @llvm.lifetime.end.p0(i64 8, ptr %5) #4
  ret i32 %10
}

; Function Attrs: inlinehint nounwind uwtable
define internal i32 @lv_obj_get_style_flex_main_place(ptr noundef %0, i32 noundef %1) #3 {
  %3 = alloca ptr, align 8
  %4 = alloca i32, align 4
  %5 = alloca %union.lv_style_value_t, align 8
  store ptr %0, ptr %3, align 8, !tbaa !22
  store i32 %1, ptr %4, align 4, !tbaa !26
  call void @llvm.lifetime.start.p0(i64 8, ptr %5) #4
  %6 = load ptr, ptr %3, align 8, !tbaa !22
  %7 = load i32, ptr %4, align 4, !tbaa !26
  %8 = call ptr @lv_obj_get_style_prop(ptr noundef %6, i32 noundef %7, i8 noundef zeroext 126)
  %9 = getelementptr inbounds nuw %union.lv_style_value_t, ptr %5, i32 0, i32 0
  store ptr %8, ptr %9, align 8
  %10 = load i32, ptr %5, align 8, !tbaa !32
  call void @llvm.lifetime.end.p0(i64 8, ptr %5) #4
  ret i32 %10
}

; Function Attrs: inlinehint nounwind uwtable
define internal i32 @lv_obj_get_style_flex_flow(ptr noundef %0, i32 noundef %1) #3 {
  %3 = alloca ptr, align 8
  %4 = alloca i32, align 4
  %5 = alloca %union.lv_style_value_t, align 8
  store ptr %0, ptr %3, align 8, !tbaa !22
  store i32 %1, ptr %4, align 4, !tbaa !26
  call void @llvm.lifetime.start.p0(i64 8, ptr %5) #4
  %6 = load ptr, ptr %3, align 8, !tbaa !22
  %7 = load i32, ptr %4, align 4, !tbaa !26
  %8 = call ptr @lv_obj_get_style_prop(ptr noundef %6, i32 noundef %7, i8 noundef zeroext 125)
  %9 = getelementptr inbounds nuw %union.lv_style_value_t, ptr %5, i32 0, i32 0
  store ptr %8, ptr %9, align 8
  %10 = load i32, ptr %5, align 8, !tbaa !32
  call void @llvm.lifetime.end.p0(i64 8, ptr %5) #4
  ret i32 %10
}

; Function Attrs: nounwind uwtable
define void @flex_loader_obj_update(ptr noundef %0, ptr noundef %1) #0 {
  %3 = alloca ptr, align 8
  %4 = alloca ptr, align 8
  %5 = alloca i32, align 4
  %6 = alloca i32, align 4
  %7 = alloca i32, align 4
  %8 = alloca i32, align 4
  %9 = alloca i32, align 4
  store ptr %0, ptr %3, align 8, !tbaa !22
  store ptr %1, ptr %4, align 8, !tbaa !3
  call void @llvm.lifetime.start.p0(i64 4, ptr %5) #4
  %10 = load ptr, ptr %3, align 8, !tbaa !22
  %11 = call i32 @lv_obj_get_style_flex_flow(ptr noundef %10, i32 noundef 0)
  store i32 %11, ptr %5, align 4, !tbaa !26
  call void @llvm.lifetime.start.p0(i64 4, ptr %6) #4
  store i32 0, ptr %6, align 4, !tbaa !26
  br label %12

12:                                               ; preds = %32, %2
  %13 = load i32, ptr %6, align 4, !tbaa !26
  %14 = zext i32 %13 to i64
  %15 = icmp ult i64 %14, 8
  br i1 %15, label %16, label %35

16:                                               ; preds = %12
  %17 = load i32, ptr %5, align 4, !tbaa !26
  %18 = load i32, ptr %6, align 4, !tbaa !26
  %19 = zext i32 %18 to i64
  %20 = getelementptr inbounds nuw [8 x i32], ptr @flex_flow_map, i64 0, i64 %19
  %21 = load i32, ptr %20, align 4, !tbaa !26
  %22 = icmp eq i32 %17, %21
  br i1 %22, label %23, label %31

23:                                               ; preds = %16
  %24 = load ptr, ptr %4, align 8, !tbaa !3
  %25 = getelementptr inbounds nuw %struct.view_t, ptr %24, i32 0, i32 4
  %26 = getelementptr inbounds nuw %struct.anon, ptr %25, i32 0, i32 1
  %27 = getelementptr inbounds nuw %struct.anon.0, ptr %26, i32 0, i32 1
  %28 = getelementptr inbounds nuw %struct.anon.1, ptr %27, i32 0, i32 1
  %29 = load ptr, ptr %28, align 8, !tbaa !7
  %30 = load i32, ptr %6, align 4, !tbaa !26
  call void @lv_dropdown_set_selected(ptr noundef %29, i32 noundef %30, i1 noundef zeroext false)
  br label %35

31:                                               ; preds = %16
  br label %32

32:                                               ; preds = %31
  %33 = load i32, ptr %6, align 4, !tbaa !26
  %34 = add i32 %33, 1
  store i32 %34, ptr %6, align 4, !tbaa !26
  br label %12, !llvm.loop !27

35:                                               ; preds = %23, %12
  br label %36

36:                                               ; preds = %35
  call void @llvm.lifetime.start.p0(i64 4, ptr %7) #4
  %37 = load ptr, ptr %3, align 8, !tbaa !22
  %38 = call i32 @lv_obj_get_style_flex_main_place(ptr noundef %37, i32 noundef 0)
  store i32 %38, ptr %7, align 4, !tbaa !26
  store i32 0, ptr %6, align 4, !tbaa !26
  br label %39

39:                                               ; preds = %59, %36
  %40 = load i32, ptr %6, align 4, !tbaa !26
  %41 = zext i32 %40 to i64
  %42 = icmp ult i64 %41, 6
  br i1 %42, label %43, label %62

43:                                               ; preds = %39
  %44 = load i32, ptr %7, align 4, !tbaa !26
  %45 = load i32, ptr %6, align 4, !tbaa !26
  %46 = zext i32 %45 to i64
  %47 = getelementptr inbounds nuw [6 x i32], ptr @flex_align_map, i64 0, i64 %46
  %48 = load i32, ptr %47, align 4, !tbaa !26
  %49 = icmp eq i32 %44, %48
  br i1 %49, label %50, label %58

50:                                               ; preds = %43
  %51 = load ptr, ptr %4, align 8, !tbaa !3
  %52 = getelementptr inbounds nuw %struct.view_t, ptr %51, i32 0, i32 4
  %53 = getelementptr inbounds nuw %struct.anon, ptr %52, i32 0, i32 1
  %54 = getelementptr inbounds nuw %struct.anon.0, ptr %53, i32 0, i32 2
  %55 = getelementptr inbounds nuw %struct.anon.2, ptr %54, i32 0, i32 1
  %56 = load ptr, ptr %55, align 8, !tbaa !17
  %57 = load i32, ptr %6, align 4, !tbaa !26
  call void @lv_dropdown_set_selected(ptr noundef %56, i32 noundef %57, i1 noundef zeroext false)
  br label %62

58:                                               ; preds = %43
  br label %59

59:                                               ; preds = %58
  %60 = load i32, ptr %6, align 4, !tbaa !26
  %61 = add i32 %60, 1
  store i32 %61, ptr %6, align 4, !tbaa !26
  br label %39, !llvm.loop !29

62:                                               ; preds = %50, %39
  call void @llvm.lifetime.end.p0(i64 4, ptr %7) #4
  br label %63

63:                                               ; preds = %62
  br label %64

64:                                               ; preds = %63
  br label %65

65:                                               ; preds = %64
  call void @llvm.lifetime.start.p0(i64 4, ptr %8) #4
  %66 = load ptr, ptr %3, align 8, !tbaa !22
  %67 = call i32 @lv_obj_get_style_flex_cross_place(ptr noundef %66, i32 noundef 0)
  store i32 %67, ptr %8, align 4, !tbaa !26
  store i32 0, ptr %6, align 4, !tbaa !26
  br label %68

68:                                               ; preds = %88, %65
  %69 = load i32, ptr %6, align 4, !tbaa !26
  %70 = zext i32 %69 to i64
  %71 = icmp ult i64 %70, 6
  br i1 %71, label %72, label %91

72:                                               ; preds = %68
  %73 = load i32, ptr %8, align 4, !tbaa !26
  %74 = load i32, ptr %6, align 4, !tbaa !26
  %75 = zext i32 %74 to i64
  %76 = getelementptr inbounds nuw [6 x i32], ptr @flex_align_map, i64 0, i64 %75
  %77 = load i32, ptr %76, align 4, !tbaa !26
  %78 = icmp eq i32 %73, %77
  br i1 %78, label %79, label %87

79:                                               ; preds = %72
  %80 = load ptr, ptr %4, align 8, !tbaa !3
  %81 = getelementptr inbounds nuw %struct.view_t, ptr %80, i32 0, i32 4
  %82 = getelementptr inbounds nuw %struct.anon, ptr %81, i32 0, i32 1
  %83 = getelementptr inbounds nuw %struct.anon.0, ptr %82, i32 0, i32 2
  %84 = getelementptr inbounds nuw %struct.anon.2, ptr %83, i32 0, i32 2
  %85 = load ptr, ptr %84, align 8, !tbaa !18
  %86 = load i32, ptr %6, align 4, !tbaa !26
  call void @lv_dropdown_set_selected(ptr noundef %85, i32 noundef %86, i1 noundef zeroext false)
  br label %91

87:                                               ; preds = %72
  br label %88

88:                                               ; preds = %87
  %89 = load i32, ptr %6, align 4, !tbaa !26
  %90 = add i32 %89, 1
  store i32 %90, ptr %6, align 4, !tbaa !26
  br label %68, !llvm.loop !30

91:                                               ; preds = %79, %68
  call void @llvm.lifetime.end.p0(i64 4, ptr %8) #4
  br label %92

92:                                               ; preds = %91
  br label %93

93:                                               ; preds = %92
  br label %94

94:                                               ; preds = %93
  call void @llvm.lifetime.start.p0(i64 4, ptr %9) #4
  %95 = load ptr, ptr %3, align 8, !tbaa !22
  %96 = call i32 @lv_obj_get_style_flex_track_place(ptr noundef %95, i32 noundef 0)
  store i32 %96, ptr %9, align 4, !tbaa !26
  store i32 0, ptr %6, align 4, !tbaa !26
  br label %97

97:                                               ; preds = %117, %94
  %98 = load i32, ptr %6, align 4, !tbaa !26
  %99 = zext i32 %98 to i64
  %100 = icmp ult i64 %99, 6
  br i1 %100, label %101, label %120

101:                                              ; preds = %97
  %102 = load i32, ptr %9, align 4, !tbaa !26
  %103 = load i32, ptr %6, align 4, !tbaa !26
  %104 = zext i32 %103 to i64
  %105 = getelementptr inbounds nuw [6 x i32], ptr @flex_align_map, i64 0, i64 %104
  %106 = load i32, ptr %105, align 4, !tbaa !26
  %107 = icmp eq i32 %102, %106
  br i1 %107, label %108, label %116

108:                                              ; preds = %101
  %109 = load ptr, ptr %4, align 8, !tbaa !3
  %110 = getelementptr inbounds nuw %struct.view_t, ptr %109, i32 0, i32 4
  %111 = getelementptr inbounds nuw %struct.anon, ptr %110, i32 0, i32 1
  %112 = getelementptr inbounds nuw %struct.anon.0, ptr %111, i32 0, i32 2
  %113 = getelementptr inbounds nuw %struct.anon.2, ptr %112, i32 0, i32 3
  %114 = load ptr, ptr %113, align 8, !tbaa !19
  %115 = load i32, ptr %6, align 4, !tbaa !26
  call void @lv_dropdown_set_selected(ptr noundef %114, i32 noundef %115, i1 noundef zeroext false)
  br label %120

116:                                              ; preds = %101
  br label %117

117:                                              ; preds = %116
  %118 = load i32, ptr %6, align 4, !tbaa !26
  %119 = add i32 %118, 1
  store i32 %119, ptr %6, align 4, !tbaa !26
  br label %97, !llvm.loop !31

120:                                              ; preds = %108, %97
  call void @llvm.lifetime.end.p0(i64 4, ptr %9) #4
  br label %121

121:                                              ; preds = %120
  br label %122

122:                                              ; preds = %121
  call void @llvm.lifetime.end.p0(i64 4, ptr %6) #4
  call void @llvm.lifetime.end.p0(i64 4, ptr %5) #4
  ret void
}