; Function Attrs: nounwind uwtable
define void @flex_loader_obj_update(ptr noundef %0, ptr noundef readonly captures(none) %1) local_unnamed_addr #0 {
  %3 = tail call ptr @lv_obj_get_style_prop(ptr noundef %0, i32 noundef 0, i8 noundef zeroext 125) #2
  %4 = ptrtoint ptr %3 to i64
  %.sroa.0.0.extract.trunc.i = trunc i64 %4 to i32
  br label %5

5:                                                ; preds = %2, %13
  %indvars.iv = phi i64 [ 0, %2 ], [ %indvars.iv.next, %13 ]
  %6 = getelementptr inbounds nuw [8 x i32], ptr @flex_flow_map, i64 0, i64 %indvars.iv
  %7 = load i32, ptr %6, align 4, !tbaa !20
  %8 = icmp eq i32 %7, %.sroa.0.0.extract.trunc.i
  br i1 %8, label %9, label %13

9:                                                ; preds = %5
  %10 = trunc nuw nsw i64 %indvars.iv to i32
  %11 = getelementptr inbounds nuw i8, ptr %1, i64 72
  %12 = load ptr, ptr %11, align 8, !tbaa !3
  tail call void @lv_dropdown_set_selected(ptr noundef %12, i32 noundef %10, i1 noundef zeroext false) #2
  br label %.loopexit36

13:                                               ; preds = %5
  %indvars.iv.next = add nuw nsw i64 %indvars.iv, 1
  %exitcond.not = icmp eq i64 %indvars.iv.next, 8
  br i1 %exitcond.not, label %.loopexit36, label %5, !llvm.loop !21

.loopexit36:                                      ; preds = %13, %9
  %14 = tail call ptr @lv_obj_get_style_prop(ptr noundef %0, i32 noundef 0, i8 noundef zeroext 126) #2
  %15 = ptrtoint ptr %14 to i64
  %.sroa.0.0.extract.trunc.i31 = trunc i64 %15 to i32
  br label %16

16:                                               ; preds = %.loopexit36, %24
  %indvars.iv50 = phi i64 [ 0, %.loopexit36 ], [ %indvars.iv.next51, %24 ]
  %17 = getelementptr inbounds nuw [6 x i32], ptr @flex_align_map, i64 0, i64 %indvars.iv50
  %18 = load i32, ptr %17, align 4, !tbaa !20
  %19 = icmp eq i32 %18, %.sroa.0.0.extract.trunc.i31
  br i1 %19, label %20, label %24

20:                                               ; preds = %16
  %21 = trunc nuw nsw i64 %indvars.iv50 to i32
  %22 = getelementptr inbounds nuw i8, ptr %1, i64 96
  %23 = load ptr, ptr %22, align 8, !tbaa !16
  tail call void @lv_dropdown_set_selected(ptr noundef %23, i32 noundef %21, i1 noundef zeroext false) #2
  br label %.loopexit35

24:                                               ; preds = %16
  %indvars.iv.next51 = add nuw nsw i64 %indvars.iv50, 1
  %exitcond53.not = icmp eq i64 %indvars.iv.next51, 6
  br i1 %exitcond53.not, label %.loopexit35, label %16, !llvm.loop !23

.loopexit35:                                      ; preds = %24, %20
  %25 = tail call ptr @lv_obj_get_style_prop(ptr noundef %0, i32 noundef 0, i8 noundef zeroext 127) #2
  %26 = ptrtoint ptr %25 to i64
  %.sroa.0.0.extract.trunc.i32 = trunc i64 %26 to i32
  br label %27

27:                                               ; preds = %.loopexit35, %35
  %indvars.iv54 = phi i64 [ 0, %.loopexit35 ], [ %indvars.iv.next55, %35 ]
  %28 = getelementptr inbounds nuw [6 x i32], ptr @flex_align_map, i64 0, i64 %indvars.iv54
  %29 = load i32, ptr %28, align 4, !tbaa !20
  %30 = icmp eq i32 %29, %.sroa.0.0.extract.trunc.i32
  br i1 %30, label %31, label %35

31:                                               ; preds = %27
  %32 = trunc nuw nsw i64 %indvars.iv54 to i32
  %33 = getelementptr inbounds nuw i8, ptr %1, i64 104
  %34 = load ptr, ptr %33, align 8, !tbaa !17
  tail call void @lv_dropdown_set_selected(ptr noundef %34, i32 noundef %32, i1 noundef zeroext false) #2
  br label %.loopexit34

35:                                               ; preds = %27
  %indvars.iv.next55 = add nuw nsw i64 %indvars.iv54, 1
  %exitcond57.not = icmp eq i64 %indvars.iv.next55, 6
  br i1 %exitcond57.not, label %.loopexit34, label %27, !llvm.loop !24

.loopexit34:                                      ; preds = %35, %31
  %36 = tail call ptr @lv_obj_get_style_prop(ptr noundef %0, i32 noundef 0, i8 noundef zeroext -128) #2
  %37 = ptrtoint ptr %36 to i64
  %.sroa.0.0.extract.trunc.i33 = trunc i64 %37 to i32
  br label %38

38:                                               ; preds = %.loopexit34, %46
  %indvars.iv58 = phi i64 [ 0, %.loopexit34 ], [ %indvars.iv.next59, %46 ]
  %39 = getelementptr inbounds nuw [6 x i32], ptr @flex_align_map, i64 0, i64 %indvars.iv58
  %40 = load i32, ptr %39, align 4, !tbaa !20
  %41 = icmp eq i32 %40, %.sroa.0.0.extract.trunc.i33
  br i1 %41, label %42, label %46

42:                                               ; preds = %38
  %43 = trunc nuw nsw i64 %indvars.iv58 to i32
  %44 = getelementptr inbounds nuw i8, ptr %1, i64 112
  %45 = load ptr, ptr %44, align 8, !tbaa !18
  tail call void @lv_dropdown_set_selected(ptr noundef %45, i32 noundef %43, i1 noundef zeroext false) #2
  br label %.loopexit

46:                                               ; preds = %38
  %indvars.iv.next59 = add nuw nsw i64 %indvars.iv58, 1
  %exitcond61.not = icmp eq i64 %indvars.iv.next59, 6
  br i1 %exitcond61.not, label %.loopexit, label %38, !llvm.loop !25

.loopexit:                                        ; preds = %46, %42
  ret void
}